; ModuleID = 'source-C-CXX/32/581.c'
source_filename = "source-C-CXX/32/581.c"
target datalayout = "e-m:e-p270:32:32-p271:32:32-p272:64:64-i64:64-f80:128-n8:16:32:64-S128"
target triple = "x86_64-pc-linux-gnu"

@.str = private unnamed_addr constant [3 x i8] c"%d\00", align 1
@.str.1 = private unnamed_addr constant [3 x i8] c"%s\00", align 1

; Function Attrs: nofree nounwind sspstrong uwtable
define dso_local i32 @main(i32 %0, i8** nocapture readnone %1) local_unnamed_addr #0 {
  %3 = alloca i32, align 4
  %4 = alloca [1000 x [256 x i8]], align 16
  %5 = bitcast i32* %3 to i8*
  call void @llvm.lifetime.start.p0i8(i64 4, i8* nonnull %5) #4
  %6 = getelementptr inbounds [1000 x [256 x i8]], [1000 x [256 x i8]]* %4, i64 0, i64 0, i64 0
  call void @llvm.lifetime.start.p0i8(i64 256000, i8* nonnull %6) #4
  %7 = call i32 (i8*, ...) @__isoc99_scanf(i8* getelementptr inbounds ([3 x i8], [3 x i8]* @.str, i64 0, i64 0), i32* nonnull %3)
  %8 = load i32, i32* %3, align 4, !tbaa !5
  %9 = icmp sgt i32 %8, 0
  br i1 %9, label %10, label %30

10:                                               ; preds = %2, %24
  %11 = phi i64 [ %26, %24 ], [ 0, %2 ]
  %12 = getelementptr inbounds [1000 x [256 x i8]], [1000 x [256 x i8]]* %4, i64 0, i64 %11, i64 0
  %13 = call i32 (i8*, ...) @__isoc99_scanf(i8* getelementptr inbounds ([3 x i8], [3 x i8]* @.str.1, i64 0, i64 0), i8* nonnull %12)
  br label %14

14:                                               ; preds = %22, %10
  %15 = phi i8* [ %12, %10 ], [ %23, %22 ]
  %16 = load i8, i8* %15, align 1, !tbaa !9
  switch i8 %16, label %22 [
    i8 0, label %24
    i8 65, label %20
    i8 84, label %17
    i8 67, label %18
    i8 71, label %19
  ]

17:                                               ; preds = %14
  br label %20

18:                                               ; preds = %14
  br label %20

19:                                               ; preds = %14
  br label %20

20:                                               ; preds = %14, %17, %19, %18
  %21 = phi i8 [ 71, %18 ], [ 67, %19 ], [ 65, %17 ], [ 84, %14 ]
  store i8 %21, i8* %15, align 1, !tbaa !9
  br label %22

22:                                               ; preds = %20, %14
  %23 = getelementptr inbounds i8, i8* %15, i64 1
  br label %14, !llvm.loop !10

24:                                               ; preds = %14
  %25 = call i32 @puts(i8* nonnull %12)
  %26 = add nuw nsw i64 %11, 1
  %27 = load i32, i32* %3, align 4, !tbaa !5
  %28 = sext i32 %27 to i64
  %29 = icmp slt i64 %26, %28
  br i1 %29, label %10, label %30, !llvm.loop !12

30:                                               ; preds = %24, %2
  call void @llvm.lifetime.end.p0i8(i64 256000, i8* nonnull %6) #4
  call void @llvm.lifetime.end.p0i8(i64 4, i8* nonnull %5) #4
  ret i32 0
}

; Function Attrs: argmemonly mustprogress nofree nosync nounwind willreturn
declare void @llvm.lifetime.start.p0i8(i64 immarg, i8* nocapture) #1

; Function Attrs: nofree nounwind
declare noundef i32 @__isoc99_scanf(i8* nocapture noundef readonly, ...) local_unnamed_addr #2

; Function Attrs: argmemonly mustprogress nofree nosync nounwind willreturn
declare void @llvm.lifetime.end.p0i8(i64 immarg, i8* nocapture) #1

; Function Attrs: nofree nounwind
declare noundef i32 @puts(i8* nocapture noundef readonly) local_unnamed_addr #3


!llvm.module.flags = !{!0, !1, !2, !3}
!llvm.ident = !{!4}

!0 = !{i32 1, !"wchar_size", i32 4}
!1 = !{i32 7, !"PIC Level", i32 2}
!2 = !{i32 7, !"PIE Level", i32 2}
!3 = !{i32 7, !"uwtable", i32 1}
!4 = !{!"clang version 13.0.0"}
!5 = !{!6, !6, i64 0}
!6 = !{!"int", !7, i64 0}
!7 = !{!"omnipotent char", !8, i64 0}
!8 = !{!"Simple C/C++ TBAA"}
!9 = !{!7, !7, i64 0}
!10 = distinct !{!10, !11}
!11 = !{!"llvm.loop.mustprogress"}
!12 = distinct !{!12, !11}
